target datalayout = "e-m:e-p270:32:32-p271:32:32-p272:64:64-i64:64-i128:128-f80:128-n8:16:32:64-S128"
target triple = "x86_64-pc-linux-gnu"

@H5T_init_g = external global i8, align 1
@H5_libterm_g = external global i8, align 1
@H5T_native_order_g = external global i32, align 4

; Function Attrs: nounwind uwtable
define i64 @H5T__bit_get_d(ptr noundef %0, i64 noundef %1, i64 noundef %2) #0 {
  %4 = alloca ptr, align 8
  %5 = alloca i64, align 8
  %6 = alloca i64, align 8
  %7 = alloca i64, align 8
  %8 = alloca i64, align 8
  %9 = alloca i64, align 8
  %10 = alloca i64, align 8
  %11 = alloca i8, align 1
  store ptr %0, ptr %4, align 8, !tbaa !3
  store i64 %1, ptr %5, align 8, !tbaa !8
  store i64 %2, ptr %6, align 8, !tbaa !8
  call void @llvm.lifetime.start.p0(i64 8, ptr %7) #4
  store i64 0, ptr %7, align 8, !tbaa !8
  call void @llvm.lifetime.start.p0(i64 8, ptr %8) #4
  call void @llvm.lifetime.start.p0(i64 8, ptr %9) #4
  call void @llvm.lifetime.start.p0(i64 8, ptr %10) #4
  store i64 0, ptr %10, align 8, !tbaa !8
  %12 = load i8, ptr @H5T_init_g, align 1, !tbaa !10, !range !12, !noundef !13
  %13 = trunc i8 %12 to i1
  br i1 %13, label %18, label %14

14:                                               ; preds = %3
  %15 = load i8, ptr @H5_libterm_g, align 1, !tbaa !10, !range !12, !noundef !13
  %16 = trunc i8 %15 to i1
  %17 = xor i1 %16, true
  br label %18

18:                                               ; preds = %14, %3
  %19 = phi i1 [ true, %3 ], [ %17, %14 ]
  %20 = xor i1 %19, true
  %21 = xor i1 %20, true
  %22 = zext i1 %21 to i32
  %23 = sext i32 %22 to i64
  %24 = call i64 @llvm.expect.i64(i64 %23, i64 1)
  %25 = icmp ne i64 %24, 0
  br i1 %25, label %26, label %60

26:                                               ; preds = %18
  %27 = load ptr, ptr %4, align 8, !tbaa !3
  %28 = load i64, ptr %5, align 8, !tbaa !8
  %29 = load i64, ptr %6, align 8, !tbaa !8
  call void @H5T__bit_copy(ptr noundef %7, i64 noundef 0, ptr noundef %27, i64 noundef %28, i64 noundef %29)
  %30 = load i32, ptr @H5T_native_order_g, align 4, !tbaa !21
  switch i32 %30, label %57 [
    i32 0, label %58
    i32 1, label %31
    i32 -1, label %56
    i32 2, label %56
    i32 4, label %56
    i32 3, label %56
  ]

31:                                               ; preds = %26
  store i64 0, ptr %8, align 8, !tbaa !8
  store i64 4, ptr %9, align 8, !tbaa !8
  br label %32

32:                                               ; preds = %52, %31
  %33 = load i64, ptr %8, align 8, !tbaa !8
  %34 = load i64, ptr %9, align 8, !tbaa !8
  %35 = icmp ult i64 %33, %34
  br i1 %35, label %36, label %55

36:                                               ; preds = %32
  call void @llvm.lifetime.start.p0(i64 1, ptr %11) #4
  %37 = load i64, ptr %8, align 8, !tbaa !8
  %38 = getelementptr inbounds nuw i8, ptr %7, i64 %37
  %39 = load i8, ptr %38, align 1, !tbaa !14
  store i8 %39, ptr %11, align 1, !tbaa !14
  %40 = load i64, ptr %8, align 8, !tbaa !8
  %41 = add i64 %40, 1
  %42 = sub i64 8, %41
  %43 = getelementptr inbounds nuw i8, ptr %7, i64 %42
  %44 = load i8, ptr %43, align 1, !tbaa !14
  %45 = load i64, ptr %8, align 8, !tbaa !8
  %46 = getelementptr inbounds nuw i8, ptr %7, i64 %45
  store i8 %44, ptr %46, align 1, !tbaa !14
  %47 = load i8, ptr %11, align 1, !tbaa !14
  %48 = load i64, ptr %8, align 8, !tbaa !8
  %49 = add i64 %48, 1
  %50 = sub i64 8, %49
  %51 = getelementptr inbounds nuw i8, ptr %7, i64 %50
  store i8 %47, ptr %51, align 1, !tbaa !14
  call void @llvm.lifetime.end.p0(i64 1, ptr %11) #4
  br label %52

52:                                               ; preds = %36
  %53 = load i64, ptr %8, align 8, !tbaa !8
  %54 = add i64 %53, 1
  store i64 %54, ptr %8, align 8, !tbaa !8
  br label %32, !llvm.loop !24

55:                                               ; preds = %32
  br label %58

56:                                               ; preds = %26, %26, %26, %26
  br label %57

57:                                               ; preds = %26, %56
  br label %58

58:                                               ; preds = %57, %55, %26
  %59 = load i64, ptr %7, align 8, !tbaa !8
  store i64 %59, ptr %10, align 8, !tbaa !8
  br label %60

60:                                               ; preds = %58, %18
  %61 = load i64, ptr %10, align 8, !tbaa !8
  call void @llvm.lifetime.end.p0(i64 8, ptr %10) #4
  call void @llvm.lifetime.end.p0(i64 8, ptr %9) #4
  call void @llvm.lifetime.end.p0(i64 8, ptr %8) #4
  call void @llvm.lifetime.end.p0(i64 8, ptr %7) #4
  ret i64 %61
}