; Function Attrs: nofree norecurse nosync nounwind memory(read, argmem: readwrite, inaccessiblemem: none) uwtable
define i64 @H5T__bit_get_d(ptr noundef readonly captures(none) %0, i64 noundef %1, i64 noundef %2) local_unnamed_addr #0 {
  %4 = alloca i64, align 8
  call void @llvm.lifetime.start.p0(i64 8, ptr nonnull %4) #7
  store i64 0, ptr %4, align 8, !tbaa !16
  %5 = load i8, ptr @H5T_init_g, align 1, !tbaa !3, !range !7, !noundef !8
  %6 = trunc nuw i8 %5 to i1
  %7 = load i8, ptr @H5_libterm_g, align 1, !range !7
  %8 = trunc nuw i8 %7 to i1
  %9 = xor i1 %8, true
  %10 = select i1 %6, i1 true, i1 %9
  br i1 %10, label %11, label %20, !prof !9

11:                                               ; preds = %3
  call void @H5T__bit_copy(ptr noundef nonnull %4, i64 noundef 0, ptr noundef %0, i64 noundef %1, i64 noundef %2)
  %12 = load i32, ptr @H5T_native_order_g, align 4, !tbaa !19
  %cond = icmp eq i32 %12, 1
  br i1 %cond, label %.preheader, label %.loopexit

.preheader:                                       ; preds = %11, %.preheader
  %.012 = phi i64 [ %15, %.preheader ], [ 0, %11 ]
  %13 = getelementptr inbounds nuw i8, ptr %4, i64 %.012
  %14 = load i8, ptr %13, align 1, !tbaa !10
  %15 = add nuw nsw i64 %.012, 1
  %16 = sub nuw nsw i64 7, %.012
  %17 = getelementptr inbounds nuw i8, ptr %4, i64 %16
  %18 = load i8, ptr %17, align 1, !tbaa !10
  store i8 %18, ptr %13, align 1, !tbaa !10
  store i8 %14, ptr %17, align 1, !tbaa !10
  %exitcond.not = icmp eq i64 %15, 4
  br i1 %exitcond.not, label %.loopexit, label %.preheader, !llvm.loop !21

.loopexit:                                        ; preds = %.preheader, %11
  %19 = load i64, ptr %4, align 8, !tbaa !16
  br label %20

20:                                               ; preds = %.loopexit, %3
  %.011 = phi i64 [ %19, %.loopexit ], [ 0, %3 ]
  call void @llvm.lifetime.end.p0(i64 8, ptr nonnull %4) #7
  ret i64 %.011
}